; Function Attrs: mustprogress nounwind willreturn uwtable
define hidden void @_ZN5ceres8internal22SparseIterativeRefinerD2Ev(ptr noundef nonnull align 8 captures(none) dereferenceable(64) initializes((0, 8)) %0) unnamed_addr #1 align 2 personality ptr @__gxx_personality_v0 {
  store ptr getelementptr inbounds nuw inrange(-16, 24) (i8, ptr @_ZTVN5ceres8internal22SparseIterativeRefinerE, i64 16), ptr %0, align 8, !tbaa !3
  %2 = getelementptr inbounds nuw i8, ptr %0, i64 48
  %3 = load ptr, ptr %2, align 8, !tbaa !16
  tail call void @free(ptr noundef %3) #19
  %4 = getelementptr inbounds nuw i8, ptr %0, i64 32
  %5 = load ptr, ptr %4, align 8, !tbaa !16
  tail call void @free(ptr noundef %5) #19
  %6 = getelementptr inbounds nuw i8, ptr %0, i64 16
  %7 = load ptr, ptr %6, align 8, !tbaa !16
  tail call void @free(ptr noundef %7) #19
  ret void
}